target datalayout = "e-m:e-p270:32:32-p271:32:32-p272:64:64-i64:64-i128:128-f80:128-n8:16:32:64-S128"
target triple = "x86_64-pc-linux-gnu"

%struct.GDBState = type { i8, ptr, ptr, ptr, i32, [4096 x i8], i32, i32, i32, ptr, i32, i8, ptr, i32, ptr, ptr, i32, i32, i8 }
%struct.DeviceState = type { %struct.Object, ptr, ptr, i8, i8, i64, i32, i8, ptr, %struct.NamedGPIOListHead, %struct.NamedClockListHead, %struct.BusStateHead, i32, i32, i32, %struct.ResettableState, ptr, %struct.MemReentrancyGuard }
%struct.Object = type { ptr, ptr, ptr, i32, ptr }
%struct.NamedGPIOListHead = type { ptr }
%struct.NamedClockListHead = type { ptr }
%struct.BusStateHead = type { ptr }
%struct.ResettableState = type { i32, i8, i8 }
%struct.MemReentrancyGuard = type { i8 }
%struct.GDBProcess = type { i32, i8, ptr }
%struct.CPUClusterState = type { %struct.DeviceState, i32 }

@.str = private unnamed_addr constant [25 x i8] c"../qemu/gdbstub/system.c\00", align 1
@.str.41 = private unnamed_addr constant [12 x i8] c"cpu-cluster\00", align 1
@.str.42 = private unnamed_addr constant [34 x i8] c"cluster->cluster_id != UINT32_MAX\00", align 1
@__PRETTY_FUNCTION__.find_cpu_clusters = private unnamed_addr constant [40 x i8] c"int find_cpu_clusters(Object *, void *)\00", align 1
@.str.43 = private unnamed_addr constant [103 x i8] c"/home/dtcxzyw/WorkSpace/Projects/compilers/llvm-opt-benchmark/bench/qemu/qemu/include/hw/cpu/cluster.h\00", align 1
@__func__.CPU_CLUSTER = private unnamed_addr constant [12 x i8] c"CPU_CLUSTER\00", align 1

; Function Attrs: inlinehint nounwind sspstrong uwtable
define internal ptr @CPU_CLUSTER(ptr noundef %0) #3 {
  %2 = alloca ptr, align 8
  store ptr %0, ptr %2, align 8
  %3 = load ptr, ptr %2, align 8
  %4 = call ptr @object_dynamic_cast_assert(ptr noundef %3, ptr noundef @.str.41, ptr noundef @.str.43, i32 noundef 58, ptr noundef @__func__.CPU_CLUSTER)
  ret ptr %4
}

; Function Attrs: nounwind sspstrong uwtable
define internal i32 @find_cpu_clusters(ptr noundef %0, ptr noundef %1) #0 {
  %3 = alloca i32, align 4
  %4 = alloca ptr, align 8
  %5 = alloca ptr, align 8
  %6 = alloca ptr, align 8
  %7 = alloca ptr, align 8
  %8 = alloca ptr, align 8
  %9 = alloca i64, align 8
  %10 = alloca i64, align 8
  %11 = alloca ptr, align 8
  %12 = alloca ptr, align 8
  store ptr %0, ptr %4, align 8
  store ptr %1, ptr %5, align 8
  %13 = load ptr, ptr %4, align 8
  %14 = call ptr @object_dynamic_cast(ptr noundef %13, ptr noundef @.str.41)
  %15 = icmp ne ptr %14, null
  br i1 %15, label %16, label %88

16:                                               ; preds = %2
  call void @llvm.lifetime.start.p0(i64 8, ptr %6) #14
  %17 = load ptr, ptr %5, align 8
  store ptr %17, ptr %6, align 8
  call void @llvm.lifetime.start.p0(i64 8, ptr %7) #14
  %18 = load ptr, ptr %4, align 8
  %19 = call ptr @CPU_CLUSTER(ptr noundef %18)
  store ptr %19, ptr %7, align 8
  call void @llvm.lifetime.start.p0(i64 8, ptr %8) #14
  store ptr null, ptr %8, align 8, !annotation !4
  call void @llvm.lifetime.start.p0(i64 8, ptr %9) #14
  %20 = load ptr, ptr %6, align 8
  %21 = getelementptr inbounds nuw %struct.GDBState, ptr %20, i32 0, i32 13
  %22 = load i32, ptr %21, align 8
  %23 = add i32 %22, 1
  store i32 %23, ptr %21, align 8
  %24 = sext i32 %23 to i64
  store i64 %24, ptr %9, align 8
  call void @llvm.lifetime.start.p0(i64 8, ptr %10) #14
  store i64 16, ptr %10, align 8
  call void @llvm.lifetime.start.p0(i64 8, ptr %11) #14
  %25 = load ptr, ptr %6, align 8
  %26 = getelementptr inbounds nuw %struct.GDBState, ptr %25, i32 0, i32 12
  %27 = load ptr, ptr %26, align 8
  store ptr %27, ptr %11, align 8
  %28 = load i64, ptr %10, align 8
  %29 = icmp eq i64 %28, 1
  br i1 %29, label %30, label %34

30:                                               ; preds = %16
  %31 = load ptr, ptr %11, align 8
  %32 = load i64, ptr %9, align 8
  %33 = call ptr @g_realloc(ptr noundef %31, i64 noundef %32)
  store ptr %33, ptr %11, align 8
  br label %57

34:                                               ; preds = %16
  %35 = load i64, ptr %9, align 8
  %36 = call i1 @llvm.is.constant.i64(i64 %35)
  br i1 %36, label %37, label %51

37:                                               ; preds = %34
  %38 = load i64, ptr %10, align 8
  %39 = icmp eq i64 %38, 0
  br i1 %39, label %45, label %40

40:                                               ; preds = %37
  %41 = load i64, ptr %9, align 8
  %42 = load i64, ptr %10, align 8
  %43 = udiv i64 -1, %42
  %44 = icmp ule i64 %41, %43
  br i1 %44, label %45, label %51

45:                                               ; preds = %40, %37
  %46 = load ptr, ptr %11, align 8
  %47 = load i64, ptr %9, align 8
  %48 = load i64, ptr %10, align 8
  %49 = mul i64 %47, %48
  %50 = call ptr @g_realloc(ptr noundef %46, i64 noundef %49)
  store ptr %50, ptr %11, align 8
  br label %56

51:                                               ; preds = %40, %34
  %52 = load ptr, ptr %11, align 8
  %53 = load i64, ptr %9, align 8
  %54 = load i64, ptr %10, align 8
  %55 = call ptr @g_realloc_n(ptr noundef %52, i64 noundef %53, i64 noundef %54)
  store ptr %55, ptr %11, align 8
  br label %56

56:                                               ; preds = %51, %45
  br label %57

57:                                               ; preds = %56, %30
  %58 = load ptr, ptr %11, align 8
  store ptr %58, ptr %12, align 8
  call void @llvm.lifetime.end.p0(i64 8, ptr %11) #14
  call void @llvm.lifetime.end.p0(i64 8, ptr %10) #14
  call void @llvm.lifetime.end.p0(i64 8, ptr %9) #14
  %59 = load ptr, ptr %12, align 8
  %60 = load ptr, ptr %6, align 8
  %61 = getelementptr inbounds nuw %struct.GDBState, ptr %60, i32 0, i32 12
  store ptr %59, ptr %61, align 8
  %62 = load ptr, ptr %6, align 8
  %63 = getelementptr inbounds nuw %struct.GDBState, ptr %62, i32 0, i32 12
  %64 = load ptr, ptr %63, align 8
  %65 = load ptr, ptr %6, align 8
  %66 = getelementptr inbounds nuw %struct.GDBState, ptr %65, i32 0, i32 13
  %67 = load i32, ptr %66, align 8
  %68 = sub i32 %67, 1
  %69 = sext i32 %68 to i64
  %70 = getelementptr inbounds %struct.GDBProcess, ptr %64, i64 %69
  store ptr %70, ptr %8, align 8
  %71 = load ptr, ptr %7, align 8
  %72 = getelementptr inbounds nuw %struct.CPUClusterState, ptr %71, i32 0, i32 1
  %73 = load i32, ptr %72, align 8
  %74 = icmp ne i32 %73, -1
  br i1 %74, label %75, label %76

75:                                               ; preds = %57
  br label %77

76:                                               ; preds = %57
  call void @__assert_fail(ptr noundef @.str.42, ptr noundef @.str, i32 noundef 293, ptr noundef @__PRETTY_FUNCTION__.find_cpu_clusters) #17
  unreachable

77:                                               ; preds = %75
  %78 = load ptr, ptr %7, align 8
  %79 = getelementptr inbounds nuw %struct.CPUClusterState, ptr %78, i32 0, i32 1
  %80 = load i32, ptr %79, align 8
  %81 = add i32 %80, 1
  %82 = load ptr, ptr %8, align 8
  %83 = getelementptr inbounds nuw %struct.GDBProcess, ptr %82, i32 0, i32 0
  store i32 %81, ptr %83, align 8
  %84 = load ptr, ptr %8, align 8
  %85 = getelementptr inbounds nuw %struct.GDBProcess, ptr %84, i32 0, i32 1
  store i8 0, ptr %85, align 4
  %86 = load ptr, ptr %8, align 8
  %87 = getelementptr inbounds nuw %struct.GDBProcess, ptr %86, i32 0, i32 2
  store ptr null, ptr %87, align 8
  store i32 0, ptr %3, align 4
  call void @llvm.lifetime.end.p0(i64 8, ptr %8) #14
  call void @llvm.lifetime.end.p0(i64 8, ptr %7) #14
  call void @llvm.lifetime.end.p0(i64 8, ptr %6) #14
  br label %92

88:                                               ; preds = %2
  %89 = load ptr, ptr %4, align 8
  %90 = load ptr, ptr %5, align 8
  %91 = call i32 @object_child_foreach(ptr noundef %89, ptr noundef @find_cpu_clusters, ptr noundef %90)
  store i32 %91, ptr %3, align 4
  br label %92

92:                                               ; preds = %88, %77
  %93 = load i32, ptr %3, align 4
  ret i32 %93
}