; Function Attrs: nounwind sspstrong uwtable
define internal i32 @find_cpu_clusters(ptr noundef %0, ptr noundef %1) #2 {
  %3 = tail call ptr @object_dynamic_cast(ptr noundef %0, ptr noundef nonnull @.str.41) #16
  %.not = icmp eq ptr %3, null
  br i1 %.not, label %24, label %4

4:                                                ; preds = %2
  %5 = tail call ptr @object_dynamic_cast_assert(ptr noundef %0, ptr noundef nonnull @.str.41, ptr noundef nonnull @.str.43, i32 noundef 58, ptr noundef nonnull @__func__.CPU_CLUSTER) #16
  %6 = getelementptr inbounds nuw i8, ptr %1, i64 4168
  %7 = load i32, ptr %6, align 8
  %8 = add i32 %7, 1
  store i32 %8, ptr %6, align 8
  %9 = getelementptr inbounds nuw i8, ptr %1, i64 4160
  %10 = load ptr, ptr %9, align 8
  %11 = sext i32 %8 to i64
  %12 = tail call ptr @g_realloc_n(ptr noundef %10, i64 noundef %11, i64 noundef 16) #16
  store ptr %12, ptr %9, align 8
  %13 = getelementptr inbounds nuw i8, ptr %5, i64 152
  %14 = load i32, ptr %13, align 8
  %.not32 = icmp eq i32 %14, -1
  br i1 %.not32, label %15, label %16

15:                                               ; preds = %4
  tail call void @__assert_fail(ptr noundef nonnull @.str.42, ptr noundef nonnull @.str, i32 noundef 293, ptr noundef nonnull @__PRETTY_FUNCTION__.find_cpu_clusters) #18
  unreachable

16:                                               ; preds = %4
  %17 = load i32, ptr %6, align 8
  %18 = add i32 %17, -1
  %19 = sext i32 %18 to i64
  %20 = getelementptr inbounds %struct.GDBProcess, ptr %12, i64 %19
  %21 = add nuw i32 %14, 1
  store i32 %21, ptr %20, align 8
  %22 = getelementptr inbounds nuw i8, ptr %20, i64 4
  store i8 0, ptr %22, align 4
  %23 = getelementptr inbounds nuw i8, ptr %20, i64 8
  store ptr null, ptr %23, align 8
  br label %26

24:                                               ; preds = %2
  %25 = tail call i32 @object_child_foreach(ptr noundef %0, ptr noundef nonnull @find_cpu_clusters, ptr noundef %1) #16
  br label %26

26:                                               ; preds = %24, %16
  %.0 = phi i32 [ 0, %16 ], [ %25, %24 ]
  ret i32 %.0
}